target datalayout = "e-m:e-p270:32:32-p271:32:32-p272:64:64-i64:64-i128:128-f80:128-n8:16:32:64-S128"
target triple = "x86_64-pc-linux-gnu"

%struct._GArray = type { ptr, i32 }
%struct.file_type_subtype_info = type { ptr, ptr, ptr, ptr, i8, i64, ptr, ptr, ptr, ptr }

@pcap_file_type_subtype = hidden global i32 -1, align 4
@pcapng_file_type_subtype = hidden global i32 -1, align 4
@file_type_subtype_table_arr = internal global ptr null, align 8
@file_type_subtype_table = internal global ptr null, align 8

; Function Attrs: nounwind null_pointer_is_valid sspstrong uwtable
define zeroext i1 @wtap_dump_can_open(i32 noundef %0) #2 {
  %2 = alloca i1, align 1
  %3 = alloca i32, align 4
  store i32 %0, ptr %3, align 4
  %4 = load i32, ptr %3, align 4
  %5 = icmp slt i32 %4, 0
  br i1 %5, label %20, label %6

6:                                                ; preds = %1
  %7 = load i32, ptr %3, align 4
  %8 = load ptr, ptr @file_type_subtype_table_arr, align 8
  %9 = getelementptr inbounds nuw %struct._GArray, ptr %8, i32 0, i32 1
  %10 = load i32, ptr %9, align 8
  %11 = icmp sge i32 %7, %10
  br i1 %11, label %20, label %12

12:                                               ; preds = %6
  %13 = load ptr, ptr @file_type_subtype_table, align 8
  %14 = load i32, ptr %3, align 4
  %15 = sext i32 %14 to i64
  %16 = getelementptr %struct.file_type_subtype_info, ptr %13, i64 %15
  %17 = getelementptr inbounds nuw %struct.file_type_subtype_info, ptr %16, i32 0, i32 8
  %18 = load ptr, ptr %17, align 8
  %19 = icmp eq ptr %18, null
  br i1 %19, label %20, label %21

20:                                               ; preds = %12, %6, %1
  store i1 false, ptr %2, align 1
  br label %22

21:                                               ; preds = %12
  store i1 true, ptr %2, align 1
  br label %22

22:                                               ; preds = %21, %20
  %23 = load i1, ptr %2, align 1
  ret i1 %23
}

; Function Attrs: null_pointer_is_valid sspstrong uwtable
define ptr @wtap_get_writable_file_types_subtypes(i32 noundef %0) #0 {
  %2 = alloca i32, align 4
  %3 = alloca ptr, align 8
  %4 = alloca i32, align 4
  store i32 %0, ptr %2, align 4
  call void @llvm.lifetime.start.p0(i64 8, ptr %3) #12
  call void @llvm.lifetime.start.p0(i64 4, ptr %4) #12
  %5 = load ptr, ptr @file_type_subtype_table_arr, align 8
  %6 = getelementptr inbounds nuw %struct._GArray, ptr %5, i32 0, i32 1
  %7 = load i32, ptr %6, align 8
  %8 = call ptr @g_array_sized_new(i32 noundef 0, i32 noundef 0, i32 noundef 4, i32 noundef %7)
  store ptr %8, ptr %3, align 8
  store i32 0, ptr %4, align 4
  br label %9

9:                                                ; preds = %31, %1
  %10 = load i32, ptr %4, align 4
  %11 = load ptr, ptr @file_type_subtype_table_arr, align 8
  %12 = getelementptr inbounds nuw %struct._GArray, ptr %11, i32 0, i32 1
  %13 = load i32, ptr %12, align 8
  %14 = icmp slt i32 %10, %13
  br i1 %14, label %15, label %34

15:                                               ; preds = %9
  %16 = load i32, ptr %4, align 4
  %17 = load i32, ptr @pcap_file_type_subtype, align 4
  %18 = icmp eq i32 %16, %17
  br i1 %18, label %23, label %19

19:                                               ; preds = %15
  %20 = load i32, ptr %4, align 4
  %21 = load i32, ptr @pcapng_file_type_subtype, align 4
  %22 = icmp eq i32 %20, %21
  br i1 %22, label %23, label %24

23:                                               ; preds = %19, %15
  br label %31

24:                                               ; preds = %19
  %25 = load i32, ptr %4, align 4
  %26 = call zeroext i1 @wtap_dump_can_open(i32 noundef %25)
  br i1 %26, label %27, label %30

27:                                               ; preds = %24
  %28 = load ptr, ptr %3, align 8
  %29 = call ptr @g_array_append_vals(ptr noundef %28, ptr noundef %4, i32 noundef 1)
  br label %30

30:                                               ; preds = %27, %24
  br label %31

31:                                               ; preds = %30, %23
  %32 = load i32, ptr %4, align 4
  %33 = add i32 %32, 1
  store i32 %33, ptr %4, align 4
  br label %9, !llvm.loop !26

34:                                               ; preds = %9
  %35 = load ptr, ptr %3, align 8
  %36 = load i32, ptr %2, align 4
  %37 = icmp eq i32 %36, 0
  %38 = select i1 %37, ptr @compare_file_type_subtypes_by_name, ptr @compare_file_type_subtypes_by_description
  call void @g_array_sort(ptr noundef %35, ptr noundef %38)
  %39 = load i32, ptr @pcapng_file_type_subtype, align 4
  %40 = icmp ne i32 %39, -1
  br i1 %40, label %41, label %47

41:                                               ; preds = %34
  %42 = load i32, ptr @pcapng_file_type_subtype, align 4
  %43 = call zeroext i1 @wtap_dump_can_open(i32 noundef %42)
  br i1 %43, label %44, label %47

44:                                               ; preds = %41
  %45 = load ptr, ptr %3, align 8
  %46 = call ptr @g_array_prepend_vals(ptr noundef %45, ptr noundef @pcapng_file_type_subtype, i32 noundef 1)
  br label %47

47:                                               ; preds = %44, %41, %34
  %48 = load i32, ptr @pcap_file_type_subtype, align 4
  %49 = icmp ne i32 %48, -1
  br i1 %49, label %50, label %56

50:                                               ; preds = %47
  %51 = load i32, ptr @pcap_file_type_subtype, align 4
  %52 = call zeroext i1 @wtap_dump_can_open(i32 noundef %51)
  br i1 %52, label %53, label %56

53:                                               ; preds = %50
  %54 = load ptr, ptr %3, align 8
  %55 = call ptr @g_array_prepend_vals(ptr noundef %54, ptr noundef @pcap_file_type_subtype, i32 noundef 1)
  br label %56

56:                                               ; preds = %53, %50, %47
  %57 = load ptr, ptr %3, align 8
  call void @llvm.lifetime.end.p0(i64 4, ptr %4) #12
  call void @llvm.lifetime.end.p0(i64 8, ptr %3) #12
  ret ptr %57
}