; Function Attrs: null_pointer_is_valid sspstrong uwtable
define ptr @wtap_get_writable_file_types_subtypes(i32 noundef %0) local_unnamed_addr #0 {
  %2 = alloca i32, align 4
  call void @llvm.lifetime.start.p0(i64 4, ptr nonnull %2) #24
  %3 = load ptr, ptr @file_type_subtype_table_arr, align 8
  %4 = getelementptr inbounds nuw i8, ptr %3, i64 8
  %5 = load i32, ptr %4, align 8
  %6 = tail call ptr @g_array_sized_new(i32 noundef 0, i32 noundef 0, i32 noundef 4, i32 noundef %5)
  store i32 0, ptr %2, align 4
  %7 = load ptr, ptr @file_type_subtype_table_arr, align 8
  %8 = getelementptr inbounds nuw i8, ptr %7, i64 8
  %9 = load i32, ptr %8, align 8
  %10 = icmp sgt i32 %9, 0
  br i1 %10, label %.lr.ph.preheader, label %._crit_edge

.lr.ph.preheader:                                 ; preds = %1
  %.pre24 = load i32, ptr @pcap_file_type_subtype, align 4
  %.pre26 = load i32, ptr @pcapng_file_type_subtype, align 4
  br label %.lr.ph

.lr.ph:                                           ; preds = %.lr.ph.preheader, %wtap_dump_can_open.exit.thread
  %11 = phi ptr [ %23, %wtap_dump_can_open.exit.thread ], [ %7, %.lr.ph.preheader ]
  %12 = phi i32 [ %25, %wtap_dump_can_open.exit.thread ], [ %.pre26, %.lr.ph.preheader ]
  %13 = phi i32 [ %26, %wtap_dump_can_open.exit.thread ], [ %.pre24, %.lr.ph.preheader ]
  %storemerge23 = phi i32 [ %27, %wtap_dump_can_open.exit.thread ], [ 0, %.lr.ph.preheader ]
  %14 = icmp eq i32 %storemerge23, %13
  %15 = icmp eq i32 %storemerge23, %12
  %or.cond = select i1 %14, i1 true, i1 %15
  %16 = icmp slt i32 %storemerge23, 0
  %or.cond18 = or i1 %16, %or.cond
  br i1 %or.cond18, label %wtap_dump_can_open.exit.thread, label %wtap_dump_can_open.exit

wtap_dump_can_open.exit:                          ; preds = %.lr.ph
  %17 = load ptr, ptr @file_type_subtype_table, align 8
  %18 = zext nneg i32 %storemerge23 to i64
  %19 = getelementptr %struct.file_type_subtype_info, ptr %17, i64 %18, i32 8
  %20 = load ptr, ptr %19, align 8
  %.not22 = icmp eq ptr %20, null
  br i1 %.not22, label %wtap_dump_can_open.exit.thread, label %21

21:                                               ; preds = %wtap_dump_can_open.exit
  %22 = call ptr @g_array_append_vals(ptr noundef %6, ptr noundef nonnull %2, i32 noundef 1)
  %.pre = load i32, ptr @pcap_file_type_subtype, align 4
  %.pre25 = load i32, ptr @pcapng_file_type_subtype, align 4
  %.pre27 = load i32, ptr %2, align 4
  %.pre28 = load ptr, ptr @file_type_subtype_table_arr, align 8
  br label %wtap_dump_can_open.exit.thread

wtap_dump_can_open.exit.thread:                   ; preds = %wtap_dump_can_open.exit, %21, %.lr.ph
  %23 = phi ptr [ %11, %wtap_dump_can_open.exit ], [ %.pre28, %21 ], [ %11, %.lr.ph ]
  %24 = phi i32 [ %storemerge23, %wtap_dump_can_open.exit ], [ %.pre27, %21 ], [ %storemerge23, %.lr.ph ]
  %25 = phi i32 [ %12, %wtap_dump_can_open.exit ], [ %.pre25, %21 ], [ %12, %.lr.ph ]
  %26 = phi i32 [ %13, %wtap_dump_can_open.exit ], [ %.pre, %21 ], [ %13, %.lr.ph ]
  %27 = add i32 %24, 1
  store i32 %27, ptr %2, align 4
  %28 = getelementptr inbounds nuw i8, ptr %23, i64 8
  %29 = load i32, ptr %28, align 8
  %30 = icmp slt i32 %27, %29
  br i1 %30, label %.lr.ph, label %._crit_edge, !llvm.loop !31

._crit_edge:                                      ; preds = %wtap_dump_can_open.exit.thread, %1
  %31 = icmp eq i32 %0, 0
  %32 = select i1 %31, ptr @compare_file_type_subtypes_by_name, ptr @compare_file_type_subtypes_by_description
  call void @g_array_sort(ptr noundef %6, ptr noundef nonnull %32)
  %33 = load i32, ptr @pcapng_file_type_subtype, align 4
  %34 = icmp slt i32 %33, 0
  br i1 %34, label %wtap_dump_can_open.exit11.thread, label %35

35:                                               ; preds = %._crit_edge
  %36 = load ptr, ptr @file_type_subtype_table_arr, align 8
  %37 = getelementptr inbounds nuw i8, ptr %36, i64 8
  %38 = load i32, ptr %37, align 8
  %.not.i9 = icmp slt i32 %33, %38
  br i1 %.not.i9, label %wtap_dump_can_open.exit11, label %wtap_dump_can_open.exit11.thread

wtap_dump_can_open.exit11:                        ; preds = %35
  %39 = load ptr, ptr @file_type_subtype_table, align 8
  %40 = zext nneg i32 %33 to i64
  %41 = getelementptr %struct.file_type_subtype_info, ptr %39, i64 %40, i32 8
  %42 = load ptr, ptr %41, align 8
  %.not = icmp eq ptr %42, null
  br i1 %.not, label %wtap_dump_can_open.exit11.thread, label %43

43:                                               ; preds = %wtap_dump_can_open.exit11
  %44 = call ptr @g_array_prepend_vals(ptr noundef %6, ptr noundef nonnull @pcapng_file_type_subtype, i32 noundef 1)
  br label %wtap_dump_can_open.exit11.thread

wtap_dump_can_open.exit11.thread:                 ; preds = %35, %43, %wtap_dump_can_open.exit11, %._crit_edge
  %45 = load i32, ptr @pcap_file_type_subtype, align 4
  %46 = icmp slt i32 %45, 0
  br i1 %46, label %wtap_dump_can_open.exit14.thread, label %47

47:                                               ; preds = %wtap_dump_can_open.exit11.thread
  %48 = load ptr, ptr @file_type_subtype_table_arr, align 8
  %49 = getelementptr inbounds nuw i8, ptr %48, i64 8
  %50 = load i32, ptr %49, align 8
  %.not.i12 = icmp slt i32 %45, %50
  br i1 %.not.i12, label %wtap_dump_can_open.exit14, label %wtap_dump_can_open.exit14.thread

wtap_dump_can_open.exit14:                        ; preds = %47
  %51 = load ptr, ptr @file_type_subtype_table, align 8
  %52 = zext nneg i32 %45 to i64
  %53 = getelementptr %struct.file_type_subtype_info, ptr %51, i64 %52, i32 8
  %54 = load ptr, ptr %53, align 8
  %.not21 = icmp eq ptr %54, null
  br i1 %.not21, label %wtap_dump_can_open.exit14.thread, label %55

55:                                               ; preds = %wtap_dump_can_open.exit14
  %56 = call ptr @g_array_prepend_vals(ptr noundef %6, ptr noundef nonnull @pcap_file_type_subtype, i32 noundef 1)
  br label %wtap_dump_can_open.exit14.thread

wtap_dump_can_open.exit14.thread:                 ; preds = %47, %55, %wtap_dump_can_open.exit14, %wtap_dump_can_open.exit11.thread
  call void @llvm.lifetime.end.p0(i64 4, ptr nonnull %2) #24
  ret ptr %6
}